(lp0
(ccopy_reg
_reconstructor
p1
(corion_actions.msg._SOMROIObject
SOMROIObject
p2
c__builtin__
object
p3
Ntp4
Rp5
(lp6
g1
(cstd_msgs.msg._Header
Header
p7
g3
Ntp8
Rp9
(lp10
I0
ag1
(cgenpy.rostime
Time
p11
g3
Ntp12
Rp13
(lp14
I0
aI0
abaS''
p15
abaS'4'
p16
ag16
aS'kitchen'
p17
aS'kitchen1'
p18
ag1
(cgeometry_msgs.msg._PoseArray
PoseArray
p19
g3
Ntp20
Rp21
(lp22
g1
(g7
g3
Ntp23
Rp24
(lp25
I0
ag1
(g11
g3
Ntp26
Rp27
(lp28
I0
aI0
abag15
aba(lp29
g1
(cgeometry_msgs.msg._Pose
Pose
p30
g3
Ntp31
Rp32
(lp33
g1
(cgeometry_msgs.msg._Point
Point
p34
g3
Ntp35
Rp36
(lp37
F-2.0159053802490234
aF-14.347650527954102
aF0.1250019073486328
abag1
(cgeometry_msgs.msg._Quaternion
Quaternion
p38
g3
Ntp39
Rp40
(lp41
F0.0
aF0.0
aF0.0
aF1.0
ababag1
(g30
g3
Ntp42
Rp43
(lp44
g1
(g34
g3
Ntp45
Rp46
(lp47
F1.8261055946350098
aF-15.142539978027344
aF0.125
abag1
(g38
g3
Ntp48
Rp49
(lp50
F0.0
aF0.0
aF0.0
aF1.0
ababag1
(g30
g3
Ntp51
Rp52
(lp53
g1
(g34
g3
Ntp54
Rp55
(lp56
F2.8172874450683594
aF-10.691007614135742
aF0.125
abag1
(g38
g3
Ntp57
Rp58
(lp59
F0.0
aF0.0
aF0.0
aF1.0
ababag1
(g30
g3
Ntp60
Rp61
(lp62
g1
(g34
g3
Ntp63
Rp64
(lp65
F-1.3215676546096802
aF-9.965810775756836
aF0.1250009536743164
abag1
(g38
g3
Ntp66
Rp67
(lp68
F0.0
aF0.0
aF0.0
aF1.0
ababaabab(dp69
Vlast_updated_by
p70
V/som_roi
p71
sVinserted_at
p72
cdatetime
datetime
p73
(S'\x07\xe3\x07\x03\x04/\x19\x077\xa8'
p74
cbson.tz_util
FixedOffset
p75
(cdatetime
timedelta
p76
(I0
I0
I0
tp77
Rp78
S'UTC'
p79
tp80
Rp81
(dp82
S'_FixedOffset__offset'
p83
g78
sS'_FixedOffset__name'
p84
g79
sbtp85
Rp86
sVtimestamp
p87
I0
sVlast_updated_at
p88
g73
(S'\x07\xe3\x07\x03\x044\r\x08\xd5\xb8'
p89
g81
tp90
Rp91
sVpublished_at
p92
g73
(S'\x07\xb2\x01\x01\x00\x00\x00\x00\x00\x00'
p93
g81
tp94
Rp95
sVstored_type
p96
Vorion_actions/SOMROIObject
p97
sVstored_class
p98
Vorion_actions.msg._SOMROIObject.SOMROIObject
p99
sVinserted_by
p100
V/som_roi
p101
sV_id
p102
g1
(cbson.objectid
ObjectId
p103
g3
Ntp104
Rp105
S']\x1c3]\xe9:\xe5#\xa2\x1d\xcfL'
p106
bstp107
a(g1
(g2
g3
Ntp108
Rp109
(lp110
g1
(g7
g3
Ntp111
Rp112
(lp113
I0
ag1
(g11
g3
Ntp114
Rp115
(lp116
I0
aI0
abag15
abaS'5'
p117
ag117
aS'living_room'
p118
aS'living_room'
p119
ag1
(g19
g3
Ntp120
Rp121
(lp122
g1
(g7
g3
Ntp123
Rp124
(lp125
I0
ag1
(g11
g3
Ntp126
Rp127
(lp128
I0
aI0
abag15
aba(lp129
g1
(g30
g3
Ntp130
Rp131
(lp132
g1
(g34
g3
Ntp133
Rp134
(lp135
F5.609188079833984
aF-15.943493843078613
aF0.1250019073486328
abag1
(g38
g3
Ntp136
Rp137
(lp138
F0.0
aF0.0
aF0.0
aF1.0
ababag1
(g30
g3
Ntp139
Rp140
(lp141
g1
(g34
g3
Ntp142
Rp143
(lp144
F6.445828437805176
aF-11.41383171081543
aF0.125
abag1
(g38
g3
Ntp145
Rp146
(lp147
F0.0
aF0.0
aF0.0
aF1.0
ababag1
(g30
g3
Ntp148
Rp149
(lp150
g1
(g34
g3
Ntp151
Rp152
(lp153
F2.720702886581421
aF-10.66236686706543
aF0.125
abag1
(g38
g3
Ntp154
Rp155
(lp156
F0.0
aF0.0
aF0.0
aF1.0
ababag1
(g30
g3
Ntp157
Rp158
(lp159
g1
(g34
g3
Ntp160
Rp161
(lp162
F1.7539820671081543
aF-15.125428199768066
aF0.1250009536743164
abag1
(g38
g3
Ntp163
Rp164
(lp165
F0.0
aF0.0
aF0.0
aF1.0
ababaabab(dp166
Vlast_updated_by
p167
V/som_roi
p168
sVinserted_at
p169
g73
(S'\x07\xe3\x07\x03\x042\x11\x08\xfc\xc8'
p170
g81
tp171
Rp172
sVtimestamp
p173
I0
sVlast_updated_at
p174
g73
(S'\x07\xe3\x07\x03\x042)\x03\tX'
p175
g81
tp176
Rp177
sVpublished_at
p178
g73
(S'\x07\xb2\x01\x01\x00\x00\x00\x00\x00\x00'
p179
g81
tp180
Rp181
sVstored_type
p182
Vorion_actions/SOMROIObject
p183
sVstored_class
p184
Vorion_actions.msg._SOMROIObject.SOMROIObject
p185
sVinserted_by
p186
V/som_roi
p187
sV_id
p188
g1
(g103
g3
Ntp189
Rp190
S']\x1c4\t\xe9:\xe5#\xa2\x1d\xcfM'
p191
bstp192
a(g1
(g2
g3
Ntp193
Rp194
(lp195
g1
(g7
g3
Ntp196
Rp197
(lp198
I0
ag1
(g11
g3
Ntp199
Rp200
(lp201
I0
aI0
abag15
abaS'6'
p202
ag202
aS'office'
p203
aS'office'
p204
ag1
(g19
g3
Ntp205
Rp206
(lp207
g1
(g7
g3
Ntp208
Rp209
(lp210
I0
ag1
(g11
g3
Ntp211
Rp212
(lp213
I0
aI0
abag15
aba(lp214
g1
(g30
g3
Ntp215
Rp216
(lp217
g1
(g34
g3
Ntp218
Rp219
(lp220
F0.9681471586227417
aF-18.77390480041504
aF0.125
abag1
(g38
g3
Ntp221
Rp222
(lp223
F0.0
aF0.0
aF0.0
aF1.0
ababag1
(g30
g3
Ntp224
Rp225
(lp226
g1
(g34
g3
Ntp227
Rp228
(lp229
F1.733924388885498
aF-15.028097152709961
aF0.1249995231628418
abag1
(g38
g3
Ntp230
Rp231
(lp232
F0.0
aF0.0
aF0.0
aF1.0
ababag1
(g30
g3
Ntp233
Rp234
(lp235
g1
(g34
g3
Ntp236
Rp237
(lp238
F5.667716979980469
aF-15.807723999023438
aF0.1250004768371582
abag1
(g38
g3
Ntp239
Rp240
(lp241
F0.0
aF0.0
aF0.0
aF1.0
ababag1
(g30
g3
Ntp242
Rp243
(lp244
g1
(g34
g3
Ntp245
Rp246
(lp247
F4.968679904937744
aF-19.42060661315918
aF0.125
abag1
(g38
g3
Ntp248
Rp249
(lp250
F0.0
aF0.0
aF0.0
aF1.0
ababaabab(dp251
Vlast_updated_by
p252
V/som_roi
p253
sVinserted_at
p254
g73
(S'\x07\xe3\x07\x03\x0421\ra\xc8'
p255
g81
tp256
Rp257
sVtimestamp
p258
I0
sVlast_updated_at
p259
g73
(S'\x07\xe3\x07\x03\x043\x19\x03\r@'
p260
g81
tp261
Rp262
sVpublished_at
p263
g73
(S'\x07\xb2\x01\x01\x00\x00\x00\x00\x00\x00'
p264
g81
tp265
Rp266
sVstored_type
p267
Vorion_actions/SOMROIObject
p268
sVstored_class
p269
Vorion_actions.msg._SOMROIObject.SOMROIObject
p270
sVinserted_by
p271
V/som_roi
p272
sV_id
p273
g1
(g103
g3
Ntp274
Rp275
S']\x1c4)\xe9:\xe5#\xa2\x1d\xcfN'
p276
bstp277
a(g1
(g2
g3
Ntp278
Rp279
(lp280
g1
(g7
g3
Ntp281
Rp282
(lp283
I0
ag1
(g11
g3
Ntp284
Rp285
(lp286
I0
aI0
abag15
abaS'7'
p287
ag287
aS'bedroom'
p288
aS'bedroom'
p289
ag1
(g19
g3
Ntp290
Rp291
(lp292
g1
(g7
g3
Ntp293
Rp294
(lp295
I0
ag1
(g11
g3
Ntp296
Rp297
(lp298
I0
aI0
abag15
aba(lp299
g1
(g30
g3
Ntp300
Rp301
(lp302
g1
(g34
g3
Ntp303
Rp304
(lp305
F-2.093587875366211
aF-14.22630500793457
aF0.1250009536743164
abag1
(g38
g3
Ntp306
Rp307
(lp308
F0.0
aF0.0
aF0.0
aF1.0
ababag1
(g30
g3
Ntp309
Rp310
(lp311
g1
(g34
g3
Ntp312
Rp313
(lp314
F-2.6437058448791504
aF-18.036468505859375
aF0.125
abag1
(g38
g3
Ntp315
Rp316
(lp317
F0.0
aF0.0
aF0.0
aF1.0
ababag1
(g30
g3
Ntp318
Rp319
(lp320
g1
(g34
g3
Ntp321
Rp322
(lp323
F1.0305233001708984
aF-18.812255859375
aF0.125
abag1
(g38
g3
Ntp324
Rp325
(lp326
F0.0
aF0.0
aF0.0
aF1.0
ababag1
(g30
g3
Ntp327
Rp328
(lp329
g1
(g34
g3
Ntp330
Rp331
(lp332
F1.8432670831680298
aF-15.028322219848633
aF0.125
abag1
(g38
g3
Ntp333
Rp334
(lp335
F0.0
aF0.0
aF0.0
aF1.0
ababaabab(dp336
Vlast_updated_by
p337
V/som_roi
p338
sVinserted_at
p339
g73
(S'\x07\xe3\x07\x03\x043\x1a\x0c@\xb8'
p340
g81
tp341
Rp342
sVtimestamp
p343
I0
sVlast_updated_at
p344
g73
(S'\x07\xe3\x07\x03\x0436\x03\xb1P'
p345
g81
tp346
Rp347
sVpublished_at
p348
g73
(S'\x07\xb2\x01\x01\x00\x00\x00\x00\x00\x00'
p349
g81
tp350
Rp351
sVstored_type
p352
Vorion_actions/SOMROIObject
p353
sVstored_class
p354
Vorion_actions.msg._SOMROIObject.SOMROIObject
p355
sVinserted_by
p356
V/som_roi
p357
sV_id
p358
g1
(g103
g3
Ntp359
Rp360
S']\x1c4N\xe9:\xe5#\xa2\x1d\xcfO'
p361
bstp362
a.