(lp0
(ccopy_reg
_reconstructor
p1
(corion_actions.msg._SOMROIObject
SOMROIObject
p2
c__builtin__
object
p3
Ntp4
Rp5
(lp6
g1
(cstd_msgs.msg._Header
Header
p7
g3
Ntp8
Rp9
(lp10
I0
ag1
(cgenpy.rostime
Time
p11
g3
Ntp12
Rp13
(lp14
I0
aI0
abaS''
p15
abaS'1'
p16
ag16
aS'kitchen'
p17
aS'kitchen'
p18
ag1
(cgeometry_msgs.msg._PoseArray
PoseArray
p19
g3
Ntp20
Rp21
(lp22
g1
(g7
g3
Ntp23
Rp24
(lp25
I0
ag1
(g11
g3
Ntp26
Rp27
(lp28
I0
aI0
abag15
aba(lp29
g1
(cgeometry_msgs.msg._Pose
Pose
p30
g3
Ntp31
Rp32
(lp33
g1
(cgeometry_msgs.msg._Point
Point
p34
g3
Ntp35
Rp36
(lp37
F-1.336182713508606
aF0.5227251052856445
aF0.1249995231628418
abag1
(cgeometry_msgs.msg._Quaternion
Quaternion
p38
g3
Ntp39
Rp40
(lp41
F0.0
aF0.0
aF0.0
aF1.0
ababag1
(g30
g3
Ntp42
Rp43
(lp44
g1
(g34
g3
Ntp45
Rp46
(lp47
F0.5
aF0.5
aF0.125
abag1
(g38
g3
Ntp48
Rp49
(lp50
F0.0
aF0.0
aF0.0
aF1.0
ababag1
(g30
g3
Ntp51
Rp52
(lp53
g1
(g34
g3
Ntp54
Rp55
(lp56
F0.5188734531402588
aF3.327338218688965
aF0.125
abag1
(g38
g3
Ntp57
Rp58
(lp59
F0.0
aF0.0
aF0.0
aF1.0
ababag1
(g30
g3
Ntp60
Rp61
(lp62
g1
(g34
g3
Ntp63
Rp64
(lp65
F-1.3456320762634277
aF3.3125009536743164
aF0.125
abag1
(g38
g3
Ntp66
Rp67
(lp68
F0.0
aF0.0
aF0.0
aF1.0
ababaabab(dp69
Vlast_updated_at
p70
cdatetime
datetime
p71
(S"\x07\xe3\x05\x17\x0e'\t\x05\x9d\x80"
p72
cbson.tz_util
FixedOffset
p73
(cdatetime
timedelta
p74
(I0
I0
I0
tp75
Rp76
S'UTC'
p77
tp78
Rp79
(dp80
S'_FixedOffset__offset'
p81
g76
sS'_FixedOffset__name'
p82
g77
sbtp83
Rp84
sVstored_type
p85
Vorion_actions/SOMROIObject
p86
sVinserted_at
p87
g71
(S'\x07\xe3\x05\x17\x0e%3\x03\xef\xd0'
p88
g79
tp89
Rp90
sVlast_updated_by
p91
V/som_roi
p92
sVstored_class
p93
Vorion_actions.msg._SOMROIObject.SOMROIObject
p94
sVinserted_by
p95
V/som_roi
p96
sV_id
p97
g1
(cbson.objectid
ObjectId
p98
g3
Ntp99
Rp100
S'\\\xe6\xb0?\xe9:\xe5K\x95\xff2\xb0'
p101
bstp102
a(g1
(g2
g3
Ntp103
Rp104
(lp105
g1
(g7
g3
Ntp106
Rp107
(lp108
I0
ag1
(g11
g3
Ntp109
Rp110
(lp111
I0
aI0
abag15
abaS'2'
p112
ag112
aS'living_room'
p113
aS'living_room'
p114
ag1
(g19
g3
Ntp115
Rp116
(lp117
g1
(g7
g3
Ntp118
Rp119
(lp120
I0
ag1
(g11
g3
Ntp121
Rp122
(lp123
I0
aI0
abag15
aba(lp124
g1
(g30
g3
Ntp125
Rp126
(lp127
g1
(g34
g3
Ntp128
Rp129
(lp130
F-0.8456320762634277
aF3.8125009536743164
aF0.125
abag1
(g38
g3
Ntp131
Rp132
(lp133
F0.0
aF0.0
aF0.0
aF1.0
ababag1
(g30
g3
Ntp134
Rp135
(lp136
g1
(g34
g3
Ntp137
Rp138
(lp139
F1.2879265546798706
aF3.861410140991211
aF0.1250004768371582
abag1
(g38
g3
Ntp140
Rp141
(lp142
F0.0
aF0.0
aF0.0
aF1.0
ababag1
(g30
g3
Ntp143
Rp144
(lp145
g1
(g34
g3
Ntp146
Rp147
(lp148
F1.3516826629638672
aF5.162825584411621
aF0.125
abag1
(g38
g3
Ntp149
Rp150
(lp151
F0.0
aF0.0
aF0.0
aF1.0
ababaabab(dp152
Vlast_updated_at
p153
g71
(S"\x07\xe3\x05\x17\x0e'#\x089x"
p154
g79
tp155
Rp156
sVstored_type
p157
Vorion_actions/SOMROIObject
p158
sVinserted_at
p159
g71
(S"\x07\xe3\x05\x17\x0e'\x0b\x0f\x13`"
p160
g79
tp161
Rp162
sVlast_updated_by
p163
V/som_roi
p164
sVstored_class
p165
Vorion_actions.msg._SOMROIObject.SOMROIObject
p166
sVinserted_by
p167
V/som_roi
p168
sV_id
p169
g1
(g98
g3
Ntp170
Rp171
S'\\\xe6\xb0\x8f\xe9:\xe5K\x95\xff2\xb1'
p172
bstp173
a.