(lp0
(ccopy_reg
_reconstructor
p1
(csemantic_mapping.msg._SOMROIObject
SOMROIObject
p2
c__builtin__
object
p3
Ntp4
Rp5
(lp6
g1
(cstd_msgs.msg._Header
Header
p7
g3
Ntp8
Rp9
(lp10
I0
ag1
(cgenpy.rostime
Time
p11
g3
Ntp12
Rp13
(lp14
I0
aI0
abaS''
p15
abaS'2'
p16
ag16
aS'Kitchen'
p17
aS'Kitchen'
p18
ag1
(cgeometry_msgs.msg._PoseArray
PoseArray
p19
g3
Ntp20
Rp21
(lp22
g1
(g7
g3
Ntp23
Rp24
(lp25
I0
ag1
(g11
g3
Ntp26
Rp27
(lp28
I0
aI0
abag15
aba(lp29
g1
(cgeometry_msgs.msg._Pose
Pose
p30
g3
Ntp31
Rp32
(lp33
g1
(cgeometry_msgs.msg._Point
Point
p34
g3
Ntp35
Rp36
(lp37
F4.408339023590088
aF2.077824115753174
aF0.1249990463256836
abag1
(cgeometry_msgs.msg._Quaternion
Quaternion
p38
g3
Ntp39
Rp40
(lp41
F0.0
aF0.0
aF0.0
aF1.0
ababag1
(g30
g3
Ntp42
Rp43
(lp44
g1
(g34
g3
Ntp45
Rp46
(lp47
F6.343239784240723
aF1.7652478218078613
aF0.1249990463256836
abag1
(g38
g3
Ntp48
Rp49
(lp50
F0.0
aF0.0
aF0.0
aF1.0
ababag1
(g30
g3
Ntp51
Rp52
(lp53
g1
(g34
g3
Ntp54
Rp55
(lp56
F6.054790019989014
aF3.2793354988098145
aF0.1249995231628418
abag1
(g38
g3
Ntp57
Rp58
(lp59
F0.0
aF0.0
aF0.0
aF1.0
ababaabab(dp60
Vlast_updated_at
p61
cdatetime
datetime
p62
(S'\x07\xe3\x05\x02\x10\x1f+\x04\xabP'
p63
cbson.tz_util
FixedOffset
p64
(cdatetime
timedelta
p65
(I0
I0
I0
tp66
Rp67
S'UTC'
p68
tp69
Rp70
(dp71
S'_FixedOffset__offset'
p72
g67
sS'_FixedOffset__name'
p73
g68
sbtp74
Rp75
sVstored_type
p76
Vsemantic_mapping/SOMROIObject
p77
sVinserted_at
p78
g62
(S'\x07\xe3\x05\x02\x10\x1f\x18\x01\xb9h'
p79
g70
tp80
Rp81
sVlast_updated_by
p82
V/som_roi
p83
sVstored_class
p84
Vsemantic_mapping.msg._SOMROIObject.SOMROIObject
p85
sVinserted_by
p86
V/som_roi
p87
sV_id
p88
g1
(cbson.objectid
ObjectId
p89
g3
Ntp90
Rp91
S'\\\xcb\x1b\\\xc0\xd8A2\xf6\xbb\x85\x10'
p92
bstp93
a(g1
(g2
g3
Ntp94
Rp95
(lp96
g1
(g7
g3
Ntp97
Rp98
(lp99
I0
ag1
(g11
g3
Ntp100
Rp101
(lp102
I0
aI0
abag15
abaS'3'
p103
ag103
aS'Kitchen'
p104
aS'Kitchen1'
p105
ag1
(g19
g3
Ntp106
Rp107
(lp108
g1
(g7
g3
Ntp109
Rp110
(lp111
I0
ag1
(g11
g3
Ntp112
Rp113
(lp114
I0
aI0
abag15
aba(lp115
g1
(g30
g3
Ntp116
Rp117
(lp118
g1
(g34
g3
Ntp119
Rp120
(lp121
F1.0547571182250977
aF6.599081993103027
aF0.1249990463256836
abag1
(g38
g3
Ntp122
Rp123
(lp124
F0.0
aF0.0
aF0.0
aF1.0
ababag1
(g30
g3
Ntp125
Rp126
(lp127
g1
(g34
g3
Ntp128
Rp129
(lp130
F4.016917705535889
aF4.874062538146973
aF0.125
abag1
(g38
g3
Ntp131
Rp132
(lp133
F0.0
aF0.0
aF0.0
aF1.0
ababag1
(g30
g3
Ntp134
Rp135
(lp136
g1
(g34
g3
Ntp137
Rp138
(lp139
F3.044543743133545
aF8.235352516174316
aF0.1249990463256836
abag1
(g38
g3
Ntp140
Rp141
(lp142
F0.0
aF0.0
aF0.0
aF1.0
ababaabab(dp143
Vlast_updated_at
p144
g62
(S'\x07\xe3\x05\x02\x10 \x13\x01\xb1\x98'
p145
g70
tp146
Rp147
sVstored_type
p148
Vsemantic_mapping/SOMROIObject
p149
sVinserted_at
p150
g62
(S'\x07\xe3\x05\x02\x10\x1f+\t\xc0\x18'
p151
g70
tp152
Rp153
sVlast_updated_by
p154
V/som_roi
p155
sVstored_class
p156
Vsemantic_mapping.msg._SOMROIObject.SOMROIObject
p157
sVinserted_by
p158
V/som_roi
p159
sV_id
p160
g1
(g89
g3
Ntp161
Rp162
S'\\\xcb\x1bo\xc0\xd8A2\xf6\xbb\x85\x11'
p163
bstp164
a(g1
(g2
g3
Ntp165
Rp166
(lp167
g1
(g7
g3
Ntp168
Rp169
(lp170
I0
ag1
(g11
g3
Ntp171
Rp172
(lp173
I1556795592
aI959512948
abaS'/map'
p174
abaS'1'
p175
ag175
aS'Office'
p176
ag15
ag1
(g19
g3
Ntp177
Rp178
(lp179
g1
(g7
g3
Ntp180
Rp181
(lp182
I0
ag1
(g11
g3
Ntp183
Rp184
(lp185
I0
aI0
abag15
aba(lp186
g1
(g30
g3
Ntp187
Rp188
(lp189
g1
(g34
g3
Ntp190
Rp191
(lp192
F0.0
aF0.0
aF0.125
abag1
(g38
g3
Ntp193
Rp194
(lp195
F0.0
aF0.0
aF0.0
aF0.0
ababag1
(g30
g3
Ntp196
Rp197
(lp198
g1
(g34
g3
Ntp199
Rp200
(lp201
F4.008828639984131
aF0.04513835906982422
aF0.125
abag1
(g38
g3
Ntp202
Rp203
(lp204
F0.0
aF0.0
aF0.0
aF1.0
ababag1
(g30
g3
Ntp205
Rp206
(lp207
g1
(g34
g3
Ntp208
Rp209
(lp210
F-1.1075642108917236
aF3.2280335426330566
aF0.125
abag1
(g38
g3
Ntp211
Rp212
(lp213
F0.0
aF0.0
aF0.0
aF1.0
ababaabab(dp214
Vlast_updated_at
p215
g62
(S'\x07\xe3\x05\x02\x10\x1f\x15\x07\xb8\x90'
p216
g70
tp217
Rp218
sVstored_type
p219
Vsemantic_mapping/SOMROIObject
p220
sVinserted_at
p221
g62
(S'\x07\xe3\x05\x02\x0b\r\x0c\x0e\xb1\xb8'
p222
g70
tp223
Rp224
sVlast_updated_by
p225
V/som_roi
p226
sVstored_class
p227
Vsemantic_mapping.msg._SOMROIObject.SOMROIObject
p228
sVinserted_by
p229
V/som_roi
p230
sV_id
p231
g1
(g89
g3
Ntp232
Rp233
S'\\\xca\xd0\xc8\xc0\xd8AK\xa4\xa0\x18i'
p234
bstp235
a(g1
(g2
g3
Ntp236
Rp237
(lp238
g1
(g7
g3
Ntp239
Rp240
(lp241
I0
ag1
(g11
g3
Ntp242
Rp243
(lp244
I0
aI0
abag15
abaS'4'
p245
ag245
aS'Kitchen'
p246
aS'Kitchen2'
p247
ag1
(g19
g3
Ntp248
Rp249
(lp250
g1
(g7
g3
Ntp251
Rp252
(lp253
I0
ag1
(g11
g3
Ntp254
Rp255
(lp256
I0
aI0
abag15
aba(lp257
g1
(g30
g3
Ntp258
Rp259
(lp260
g1
(g34
g3
Ntp261
Rp262
(lp263
F4.937569618225098
aF6.373903274536133
aF0.1249990463256836
abag1
(g38
g3
Ntp264
Rp265
(lp266
F0.0
aF0.0
aF0.0
aF1.0
ababag1
(g30
g3
Ntp267
Rp268
(lp269
g1
(g34
g3
Ntp270
Rp271
(lp272
F4.449917316436768
aF9.190292358398438
aF0.1249990463256836
abag1
(g38
g3
Ntp273
Rp274
(lp275
F0.0
aF0.0
aF0.0
aF1.0
ababag1
(g30
g3
Ntp276
Rp277
(lp278
g1
(g34
g3
Ntp279
Rp280
(lp281
F5.937569618225098
aF7.373903274536133
aF0.125
abag1
(g38
g3
Ntp282
Rp283
(lp284
F0.0
aF0.0
aF0.0
aF1.0
ababaabab(dp285
Vlast_updated_at
p286
g62
(S'\x07\xe3\x05\x02\x10 \x14\x05\xe3\xd0'
p287
g70
tp288
Rp289
sVstored_type
p290
Vsemantic_mapping/SOMROIObject
p291
sVinserted_at
p292
g62
(S'\x07\xe3\x05\x02\x10\x1f5\x02\xe60'
p293
g70
tp294
Rp295
sVlast_updated_by
p296
V/som_roi
p297
sVstored_class
p298
Vsemantic_mapping.msg._SOMROIObject.SOMROIObject
p299
sVinserted_by
p300
V/som_roi
p301
sV_id
p302
g1
(g89
g3
Ntp303
Rp304
S'\\\xcb\x1by\xc0\xd8A2\xf6\xbb\x85\x12'
p305
bstp306
a.