(lp0
(ccopy_reg
_reconstructor
p1
(csemantic_mapping.msg._SOMROIObject
SOMROIObject
p2
c__builtin__
object
p3
Ntp4
Rp5
(lp6
g1
(cstd_msgs.msg._Header
Header
p7
g3
Ntp8
Rp9
(lp10
I0
ag1
(cgenpy.rostime
Time
p11
g3
Ntp12
Rp13
(lp14
I0
aI0
abaS''
p15
abaS'1'
p16
ag16
aS'Office'
p17
aS'Office'
p18
ag1
(cgeometry_msgs.msg._PoseArray
PoseArray
p19
g3
Ntp20
Rp21
(lp22
g1
(g7
g3
Ntp23
Rp24
(lp25
I0
ag1
(g11
g3
Ntp26
Rp27
(lp28
I0
aI0
abag15
aba(lp29
g1
(cgeometry_msgs.msg._Pose
Pose
p30
g3
Ntp31
Rp32
(lp33
g1
(cgeometry_msgs.msg._Point
Point
p34
g3
Ntp35
Rp36
(lp37
F0.0
aF0.0
aF0.125
abag1
(cgeometry_msgs.msg._Quaternion
Quaternion
p38
g3
Ntp39
Rp40
(lp41
F0.0
aF0.0
aF0.0
aF0.0
ababag1
(g30
g3
Ntp42
Rp43
(lp44
g1
(g34
g3
Ntp45
Rp46
(lp47
F3.1096315383911133
aF-0.061951637268066406
aF0.1249990463256836
abag1
(g38
g3
Ntp48
Rp49
(lp50
F0.0
aF0.0
aF0.0
aF1.0
ababag1
(g30
g3
Ntp51
Rp52
(lp53
g1
(g34
g3
Ntp54
Rp55
(lp56
F3.437314510345459
aF1.8870954513549805
aF0.125
abag1
(g38
g3
Ntp57
Rp58
(lp59
F0.0
aF0.0
aF0.0
aF1.0
ababag1
(g30
g3
Ntp60
Rp61
(lp62
g1
(g34
g3
Ntp63
Rp64
(lp65
F0.48726940155029297
aF2.0388402938842773
aF0.1250009536743164
abag1
(g38
g3
Ntp66
Rp67
(lp68
F0.0
aF0.0
aF0.0
aF1.0
ababaabab(dp69
Vlast_updated_at
p70
cdatetime
datetime
p71
(S'\x07\xe3\x05\x02\x10+\r\x04\xda0'
p72
cbson.tz_util
FixedOffset
p73
(cdatetime
timedelta
p74
(I0
I0
I0
tp75
Rp76
S'UTC'
p77
tp78
Rp79
(dp80
S'_FixedOffset__offset'
p81
g76
sS'_FixedOffset__name'
p82
g77
sbtp83
Rp84
sVstored_type
p85
Vsemantic_mapping/SOMROIObject
p86
sVinserted_at
p87
g71
(S'\x07\xe3\x05\x02\x10*0\x05\x95\xb0'
p88
g79
tp89
Rp90
sVlast_updated_by
p91
V/som_roi
p92
sVstored_class
p93
Vsemantic_mapping.msg._SOMROIObject.SOMROIObject
p94
sVinserted_by
p95
V/som_roi
p96
sV_id
p97
g1
(cbson.objectid
ObjectId
p98
g3
Ntp99
Rp100
S'\\\xcb\x1e\x08\xc0\xd8AD@\x07:\xf9'
p101
bstp102
a(g1
(g2
g3
Ntp103
Rp104
(lp105
g1
(g7
g3
Ntp106
Rp107
(lp108
I0
ag1
(g11
g3
Ntp109
Rp110
(lp111
I0
aI0
abag15
abaS'2'
p112
ag112
aS'Kitchen'
p113
aS'Kitchen'
p114
ag1
(g19
g3
Ntp115
Rp116
(lp117
g1
(g7
g3
Ntp118
Rp119
(lp120
I0
ag1
(g11
g3
Ntp121
Rp122
(lp123
I0
aI0
abag15
aba(lp124
g1
(g30
g3
Ntp125
Rp126
(lp127
g1
(g34
g3
Ntp128
Rp129
(lp130
F3.329230308532715
aF2.61733341217041
aF0.125
abag1
(g38
g3
Ntp131
Rp132
(lp133
F0.0
aF0.0
aF0.0
aF1.0
ababag1
(g30
g3
Ntp134
Rp135
(lp136
g1
(g34
g3
Ntp137
Rp138
(lp139
F3.6907992362976074
aF4.286844730377197
aF0.125
abag1
(g38
g3
Ntp140
Rp141
(lp142
F0.0
aF0.0
aF0.0
aF1.0
ababag1
(g30
g3
Ntp143
Rp144
(lp145
g1
(g34
g3
Ntp146
Rp147
(lp148
F1.756627082824707
aF4.482571601867676
aF0.125
abag1
(g38
g3
Ntp149
Rp150
(lp151
F0.0
aF0.0
aF0.0
aF1.0
ababag1
(g30
g3
Ntp152
Rp153
(lp154
g1
(g34
g3
Ntp155
Rp156
(lp157
F1.589914321899414
aF2.78756046295166
aF0.125
abag1
(g38
g3
Ntp158
Rp159
(lp160
F0.0
aF0.0
aF0.0
aF1.0
ababaabab(dp161
Vlast_updated_at
p162
g71
(S'\x07\xe3\x05\x02\x10+\x1d\x01kH'
p163
g79
tp164
Rp165
sVstored_type
p166
Vsemantic_mapping/SOMROIObject
p167
sVinserted_at
p168
g71
(S'\x07\xe3\x05\x02\x10+\x0e\x05Kx'
p169
g79
tp170
Rp171
sVlast_updated_by
p172
V/som_roi
p173
sVstored_class
p174
Vsemantic_mapping.msg._SOMROIObject.SOMROIObject
p175
sVinserted_by
p176
V/som_roi
p177
sV_id
p178
g1
(g98
g3
Ntp179
Rp180
S'\\\xcb\x1e"\xc0\xd8AD@\x07:\xfa'
p181
bstp182
a.